target datalayout = "e-m:e-p270:32:32-p271:32:32-p272:64:64-i64:64-i128:128-f80:128-n8:16:32:64-S128"
target triple = "x86_64-unknown-linux-gnu"

%"class.std::__cxx11::basic_string" = type { %"struct.std::__cxx11::basic_string<char>::_Alloc_hider", i64, %union.anon }
%"struct.std::__cxx11::basic_string<char>::_Alloc_hider" = type { ptr }
%union.anon = type { i64, [8 x i8] }
%"class.openvdb::v11_0::io::GridDescriptor" = type { %"class.std::__cxx11::basic_string", %"class.std::__cxx11::basic_string", %"class.std::__cxx11::basic_string", %"class.std::__cxx11::basic_string", i8, i64, i64, i64 }

; Function Attrs: mustprogress uwtable
define void @_ZNK7openvdb5v11_02io14GridDescriptor14writeStreamPosERSo(ptr noundef nonnull align 8 dereferenceable(160) %this, ptr noundef nonnull align 8 dereferenceable(8) %os) #4 align 2 {
entry:
  %this.addr = alloca ptr, align 8
  %os.addr = alloca ptr, align 8
  store ptr %this, ptr %this.addr, align 8
  store ptr %os, ptr %os.addr, align 8
  %this1 = load ptr, ptr %this.addr, align 8
  %0 = load ptr, ptr %os.addr, align 8
  %mGridPos = getelementptr inbounds %"class.openvdb::v11_0::io::GridDescriptor", ptr %this1, i32 0, i32 5
  %call = call noundef nonnull align 8 dereferenceable(8) ptr @_ZNSo5writeEPKcl(ptr noundef nonnull align 8 dereferenceable(8) %0, ptr noundef %mGridPos, i64 noundef 8)
  %1 = load ptr, ptr %os.addr, align 8
  %mBlockPos = getelementptr inbounds %"class.openvdb::v11_0::io::GridDescriptor", ptr %this1, i32 0, i32 6
  %call2 = call noundef nonnull align 8 dereferenceable(8) ptr @_ZNSo5writeEPKcl(ptr noundef nonnull align 8 dereferenceable(8) %1, ptr noundef %mBlockPos, i64 noundef 8)
  %2 = load ptr, ptr %os.addr, align 8
  %mEndPos = getelementptr inbounds %"class.openvdb::v11_0::io::GridDescriptor", ptr %this1, i32 0, i32 7
  %call3 = call noundef nonnull align 8 dereferenceable(8) ptr @_ZNSo5writeEPKcl(ptr noundef nonnull align 8 dereferenceable(8) %2, ptr noundef %mEndPos, i64 noundef 8)
  ret void
}