; Function Attrs: mustprogress uwtable
define void @_ZNK7openvdb5v11_02io14GridDescriptor14writeStreamPosERSo(ptr noundef nonnull align 8 dereferenceable(160) %this, ptr noundef nonnull align 8 dereferenceable(8) %os) local_unnamed_addr #5 align 2 {
entry:
  %mGridPos = getelementptr inbounds i8, ptr %this, i64 136
  %call = tail call noundef nonnull align 8 dereferenceable(8) ptr @_ZNSo5writeEPKcl(ptr noundef nonnull align 8 dereferenceable(8) %os, ptr noundef nonnull %mGridPos, i64 noundef 8)
  %mBlockPos = getelementptr inbounds i8, ptr %this, i64 144
  %call2 = tail call noundef nonnull align 8 dereferenceable(8) ptr @_ZNSo5writeEPKcl(ptr noundef nonnull align 8 dereferenceable(8) %os, ptr noundef nonnull %mBlockPos, i64 noundef 8)
  %mEndPos = getelementptr inbounds i8, ptr %this, i64 152
  %call3 = tail call noundef nonnull align 8 dereferenceable(8) ptr @_ZNSo5writeEPKcl(ptr noundef nonnull align 8 dereferenceable(8) %os, ptr noundef nonnull %mEndPos, i64 noundef 8)
  ret void
}